Certificate:
    Data:
        Version: 3 (0x2)
        Serial Number: 1 (0x1)
    Signature Algorithm: sha256WithRSAEncryption
        Issuer: C=RO, ST=Bucharest, L=Bucharest, O=Carplanner SRL, OU=Server Research Department, CN=Test CA/emailAddress=carplannerroot@gmail.com
        Validity
            Not Before: Jan 12 15:34:32 2020 GMT
            Not After : Oct  8 15:34:32 2022 GMT
        Subject: C=RO, ST=Bucharest, L=Bucharest, O=Carplanner SRL, CN=carplanner.ro
        Subject Public Key Info:
            Public Key Algorithm: rsaEncryption
                Public-Key: (2048 bit)
                Modulus:
                    00:c8:34:23:35:2b:64:49:05:ca:cc:3a:10:70:0f:
                    97:4a:d6:d8:cb:6a:98:6f:48:cf:eb:9a:04:2a:88:
                    0e:31:94:e4:4c:8d:74:26:66:47:ec:e6:ad:f8:de:
                    99:34:3f:84:8d:8b:ec:75:98:15:3d:68:8b:76:07:
                    bf:f7:0a:49:e0:2f:64:b5:8b:72:47:69:26:aa:b2:
                    b0:ee:eb:77:26:7b:1a:0c:45:6b:7b:3b:26:13:2f:
                    2e:56:f1:8c:b9:5a:f1:db:9e:85:0b:29:5b:a6:7d:
                    71:22:d0:16:a3:8e:15:66:e9:4a:f5:a6:86:14:d7:
                    27:44:e8:b6:5c:37:3d:8d:22:da:1f:16:93:45:c9:
                    0e:bf:1a:e1:a2:c2:e5:a3:ed:3e:7d:74:1a:86:56:
                    98:2a:99:76:4a:6e:9f:3a:b9:53:48:01:6a:47:55:
                    56:32:3f:6f:d8:ff:9a:d7:df:ff:d5:56:ad:8e:cc:
                    e9:6d:0e:28:40:f7:b9:14:3d:0c:6e:61:db:b9:54:
                    8c:e1:31:33:ae:24:da:81:c0:24:fd:47:7b:38:c5:
                    90:66:b0:7d:15:c4:3e:2d:d9:5e:63:6b:45:37:ac:
                    e7:f8:97:3f:2c:4a:39:80:67:df:c6:0c:86:b9:1b:
                    10:5b:08:24:58:33:e0:79:46:8f:1b:4d:4b:53:d6:
                    17:27
                Exponent: 65537 (0x10001)
        X509v3 extensions:
            X509v3 Subject Key Identifier:
                E2:A9:26:5C:E5:93:04:0A:66:32:69:AC:70:CB:B8:0B:B6:70:26:A8
            X509v3 Authority Key Identifier:
                keyid:55:64:5E:F1:55:0F:6F:B2:17:10:0F:4C:75:A5:39:4E:5E:A2:E5:67

            X509v3 Basic Constraints:
                CA:FALSE
            X509v3 Key Usage:
                Digital Signature, Key Encipherment
            X509v3 Subject Alternative Name:
                DNS:localhost, DNS:carplanner.ro
            Netscape Comment:
                OpenSSL Generated Certificate
    Signature Algorithm: sha256WithRSAEncryption
         75:e3:ff:af:8d:d1:00:b5:c8:8a:13:b8:76:02:ff:9e:2b:e2:
         66:d3:c4:bd:ee:e0:a8:1e:be:e1:44:61:c5:1c:ed:3d:2c:4d:
         16:ae:b4:69:1d:67:73:b3:ba:90:a7:b4:1c:87:0b:9d:70:7d:
         20:be:c8:46:45:0f:9c:bc:cd:08:08:65:11:8d:b2:19:a0:47:
         72:3c:83:3d:18:96:1b:c3:e7:ec:a9:9c:7f:18:2c:b4:bb:33:
         44:cf:9f:aa:88:c4:04:97:9d:17:aa:38:b5:8a:03:d5:da:a8:
         d5:17:64:29:cb:e7:46:3f:a2:c0:69:01:1a:cf:bb:be:50:f1:
         c3:00:fb:c9:9c:11:70:61:33:f5:fb:b6:fb:4c:b3:3a:38:0f:
         bc:45:90:55:b1:52:8c:a3:1f:97:08:f1:d7:57:90:18:e9:b9:
         d7:57:57:5e:5e:94:40:1c:e7:16:da:fe:f2:70:d6:57:ac:0b:
         da:8b:21:98:35:be:56:ab:5c:e5:7a:2c:09:1e:e8:b0:eb:a4:
         e7:94:01:e7:4b:e4:66:cc:17:a3:4c:9c:72:cf:64:78:41:0b:
         7a:99:09:a9:7b:5c:1a:2e:9e:99:e6:fd:ef:3e:73:60:55:74:
         7f:34:e4:2f:03:25:8f:e3:7b:5c:b5:4b:2a:88:2e:e8:67:29:
         b4:bf:7b:be:a5:02:ec:7e:b3:cc:41:0c:a6:a9:ad:6f:0f:e4:
         7b:a7:c4:da:29:eb:1a:de:76:dc:c2:90:6b:e8:06:15:58:b8:
         d6:cf:ba:8e:fc:4f:0d:0c:bb:07:38:07:ad:19:2b:63:2b:25:
         13:99:7b:6c:ed:94:06:8c:b4:bf:01:2f:84:18:51:48:51:d9:
         f7:0e:1d:c9:b9:0c:6c:00:06:01:37:ce:95:bf:14:db:21:02:
         aa:03:4c:02:62:93:a0:b3:9c:12:c0:5c:1f:0a:2a:b3:cc:6f:
         42:14:54:2d:f4:48:2f:6d:95:6a:f2:b7:37:ac:df:f6:bd:22:
         60:57:1a:73:cb:e0:d9:49:6d:50:a8:91:8c:6e:cf:2c:34:b7:
         60:a7:c4:bf:a6:2a:bd:82:b8:ab:9b:82:56:df:d0:04:84:36:
         c9:3d:f3:ae:c3:51:e9:6c:12:e9:a2:58:2d:03:23:fa:98:e8:
         8f:82:f6:82:80:ec:fc:34:69:5e:8c:a5:93:79:44:b8:e8:1e:
         9d:2e:8e:c2:17:21:cb:16:82:69:d7:4f:ee:37:17:48:29:b5:
         e3:e2:40:9d:c3:fb:35:77:cd:bf:51:0a:29:2a:7a:fc:e1:0f:
         3d:cc:de:61:7b:9e:8a:03:6f:6f:93:ae:96:b3:49:7d:ed:13:
         ad:86:ac:3e:11:d2:8d:a4
-----BEGIN CERTIFICATE-----
MIIFPzCCAyegAwIBAgIBATANBgkqhkiG9w0BAQsFADCBrjELMAkGA1UEBhMCUk8x
EjAQBgNVBAgMCUJ1Y2hhcmVzdDESMBAGA1UEBwwJQnVjaGFyZXN0MRcwFQYDVQQK
DA5DYXJwbGFubmVyIFNSTDEjMCEGA1UECwwaU2VydmVyIFJlc2VhcmNoIERlcGFy
dG1lbnQxEDAOBgNVBAMMB1Rlc3QgQ0ExJzAlBgkqhkiG9w0BCQEWGGNhcnBsYW5u
ZXJyb290QGdtYWlsLmNvbTAeFw0yMDAxMTIxNTM0MzJaFw0yMjEwMDgxNTM0MzJa
MGYxCzAJBgNVBAYTAlJPMRIwEAYDVQQIDAlCdWNoYXJlc3QxEjAQBgNVBAcMCUJ1
Y2hhcmVzdDEXMBUGA1UECgwOQ2FycGxhbm5lciBTUkwxFjAUBgNVBAMMDWNhcnBs
YW5uZXIucm8wggEiMA0GCSqGSIb3DQEBAQUAA4IBDwAwggEKAoIBAQDINCM1K2RJ
BcrMOhBwD5dK1tjLaphvSM/rmgQqiA4xlORMjXQmZkfs5q343pk0P4SNi+x1mBU9
aIt2B7/3CkngL2S1i3JHaSaqsrDu63cmexoMRWt7OyYTLy5W8Yy5WvHbnoULKVum
fXEi0BajjhVm6Ur1poYU1ydE6LZcNz2NItofFpNFyQ6/GuGiwuWj7T59dBqGVpgq
mXZKbp86uVNIAWpHVVYyP2/Y/5rX3//VVq2OzOltDihA97kUPQxuYdu5VIzhMTOu
JNqBwCT9R3s4xZBmsH0VxD4t2V5ja0U3rOf4lz8sSjmAZ9/GDIa5GxBbCCRYM+B5
Ro8bTUtT1hcnAgMBAAGjga4wgaswHQYDVR0OBBYEFOKpJlzlkwQKZjJprHDLuAu2
cCaoMB8GA1UdIwQYMBaAFFVkXvFVD2+yFxAPTHWlOU5eouVnMAkGA1UdEwQCMAAw
CwYDVR0PBAQDAgWgMCMGA1UdEQQcMBqCCWxvY2FsaG9zdIINY2FycGxhbm5lci5y
bzAsBglghkgBhvhCAQ0EHxYdT3BlblNTTCBHZW5lcmF0ZWQgQ2VydGlmaWNhdGUw
DQYJKoZIhvcNAQELBQADggIBAHXj/6+N0QC1yIoTuHYC/54r4mbTxL3u4KgevuFE
YcUc7T0sTRautGkdZ3OzupCntByHC51wfSC+yEZFD5y8zQgIZRGNshmgR3I8gz0Y
lhvD5+ypnH8YLLS7M0TPn6qIxASXnReqOLWKA9XaqNUXZCnL50Y/osBpARrPu75Q
8cMA+8mcEXBhM/X7tvtMszo4D7xFkFWxUoyjH5cI8ddXkBjpuddXV15elEAc5xba
/vJw1lesC9qLIZg1vlarXOV6LAke6LDrpOeUAedL5GbMF6NMnHLPZHhBC3qZCal7
XBounpnm/e8+c2BVdH805C8DJY/je1y1SyqILuhnKbS/e76lAux+s8xBDKaprW8P
5HunxNop6xredtzCkGvoBhVYuNbPuo78Tw0Muwc4B60ZK2MrJROZe2ztlAaMtL8B
L4QYUUhR2fcOHcm5DGwABgE3zpW/FNshAqoDTAJik6CznBLAXB8KKrPMb0IUVC30
SC9tlWrytzes3/a9ImBXGnPL4NlJbVCokYxuzyw0t2CnxL+mKr2CuKubglbf0ASE
Nsk9867DUelsEumiWC0DI/qY6I+C9oKA7Pw0aV6MpZN5RLjoHp0ujsIXIcsWgmnX
T+43F0gptePiQJ3D+zV3zb9RCikqevzhDz3M3mF7nooDb2+TrpazSX3tE62GrD4R
0o2k
-----END CERTIFICATE-----
